target datalayout = "e-m:e-p270:32:32-p271:32:32-p272:64:64-i64:64-i128:128-f80:128-n8:16:32:64-S128"
target triple = "x86_64-pc-linux-gnu"

%"class.Imf_3_4::TimeCode" = type { i32, i32 }

; Function Attrs: mustprogress nounwind uwtable
define internal void @_ZN7Imf_3_412_GLOBAL__N_111setBitFieldERjiij(ptr noundef nonnull align 4 dereferenceable(4) %0, i32 noundef %1, i32 noundef %2, i32 noundef %3) #0 {
  %5 = alloca ptr, align 8
  %6 = alloca i32, align 4
  %7 = alloca i32, align 4
  %8 = alloca i32, align 4
  %9 = alloca i32, align 4
  %10 = alloca i32, align 4
  store ptr %0, ptr %5, align 8, !tbaa !19
  store i32 %1, ptr %6, align 4, !tbaa !12
  store i32 %2, ptr %7, align 4, !tbaa !12
  store i32 %3, ptr %8, align 4, !tbaa !12
  call void @llvm.lifetime.start.p0(i64 4, ptr %9) #5
  %11 = load i32, ptr %6, align 4, !tbaa !12
  store i32 %11, ptr %9, align 4, !tbaa !12
  call void @llvm.lifetime.start.p0(i64 4, ptr %10) #5
  %12 = load i32, ptr %7, align 4, !tbaa !12
  %13 = load i32, ptr %6, align 4, !tbaa !12
  %14 = sub nsw i32 %12, %13
  %15 = add nsw i32 %14, 1
  %16 = shl i32 -1, %15
  %17 = xor i32 %16, -1
  %18 = load i32, ptr %6, align 4, !tbaa !12
  %19 = shl i32 %17, %18
  store i32 %19, ptr %10, align 4, !tbaa !12
  %20 = load ptr, ptr %5, align 8, !tbaa !19
  %21 = load i32, ptr %20, align 4, !tbaa !12
  %22 = load i32, ptr %10, align 4, !tbaa !12
  %23 = xor i32 %22, -1
  %24 = and i32 %21, %23
  %25 = load i32, ptr %8, align 4, !tbaa !12
  %26 = load i32, ptr %9, align 4, !tbaa !12
  %27 = shl i32 %25, %26
  %28 = load i32, ptr %10, align 4, !tbaa !12
  %29 = and i32 %27, %28
  %30 = or i32 %24, %29
  %31 = load ptr, ptr %5, align 8, !tbaa !19
  store i32 %30, ptr %31, align 4, !tbaa !12
  call void @llvm.lifetime.end.p0(i64 4, ptr %10) #5
  call void @llvm.lifetime.end.p0(i64 4, ptr %9) #5
  ret void
}

; Function Attrs: mustprogress uwtable
define void @_ZN7Imf_3_48TimeCode13setFieldPhaseEb(ptr noundef nonnull align 4 dereferenceable(8) %0, i1 noundef zeroext %1) #1 align 2 {
  %3 = alloca ptr, align 8
  %4 = alloca i8, align 1
  store ptr %0, ptr %3, align 8, !tbaa !3
  %5 = zext i1 %1 to i8
  store i8 %5, ptr %4, align 1, !tbaa !13
  %6 = load ptr, ptr %3, align 8
  %7 = getelementptr inbounds nuw %"class.Imf_3_4::TimeCode", ptr %6, i32 0, i32 0
  %8 = load i8, ptr %4, align 1, !tbaa !13, !range !15, !noundef !16
  %9 = trunc i8 %8 to i1
  %10 = xor i1 %9, true
  %11 = xor i1 %10, true
  %12 = zext i1 %11 to i32
  call void @_ZN7Imf_3_412_GLOBAL__N_111setBitFieldERjiij(ptr noundef nonnull align 4 dereferenceable(4) %7, i32 noundef 15, i32 noundef 15, i32 noundef %12)
  ret void
}

; Function Attrs: mustprogress uwtable
define void @_ZN7Imf_3_48TimeCode7setBgf1Eb(ptr noundef nonnull align 4 dereferenceable(8) %0, i1 noundef zeroext %1) #1 align 2 {
  %3 = alloca ptr, align 8
  %4 = alloca i8, align 1
  store ptr %0, ptr %3, align 8, !tbaa !3
  %5 = zext i1 %1 to i8
  store i8 %5, ptr %4, align 1, !tbaa !13
  %6 = load ptr, ptr %3, align 8
  %7 = getelementptr inbounds nuw %"class.Imf_3_4::TimeCode", ptr %6, i32 0, i32 0
  %8 = load i8, ptr %4, align 1, !tbaa !13, !range !15, !noundef !16
  %9 = trunc i8 %8 to i1
  %10 = xor i1 %9, true
  %11 = xor i1 %10, true
  %12 = zext i1 %11 to i32
  call void @_ZN7Imf_3_412_GLOBAL__N_111setBitFieldERjiij(ptr noundef nonnull align 4 dereferenceable(4) %7, i32 noundef 30, i32 noundef 30, i32 noundef %12)
  ret void
}

; Function Attrs: mustprogress uwtable
define void @_ZN7Imf_3_48TimeCode7setBgf2Eb(ptr noundef nonnull align 4 dereferenceable(8) %0, i1 noundef zeroext %1) #1 align 2 {
  %3 = alloca ptr, align 8
  %4 = alloca i8, align 1
  store ptr %0, ptr %3, align 8, !tbaa !3
  %5 = zext i1 %1 to i8
  store i8 %5, ptr %4, align 1, !tbaa !13
  %6 = load ptr, ptr %3, align 8
  %7 = getelementptr inbounds nuw %"class.Imf_3_4::TimeCode", ptr %6, i32 0, i32 0
  %8 = load i8, ptr %4, align 1, !tbaa !13, !range !15, !noundef !16
  %9 = trunc i8 %8 to i1
  %10 = xor i1 %9, true
  %11 = xor i1 %10, true
  %12 = zext i1 %11 to i32
  call void @_ZN7Imf_3_412_GLOBAL__N_111setBitFieldERjiij(ptr noundef nonnull align 4 dereferenceable(4) %7, i32 noundef 31, i32 noundef 31, i32 noundef %12)
  ret void
}

; Function Attrs: mustprogress uwtable
define void @_ZN7Imf_3_48TimeCode7setBgf0Eb(ptr noundef nonnull align 4 dereferenceable(8) %0, i1 noundef zeroext %1) #1 align 2 {
  %3 = alloca ptr, align 8
  %4 = alloca i8, align 1
  store ptr %0, ptr %3, align 8, !tbaa !3
  %5 = zext i1 %1 to i8
  store i8 %5, ptr %4, align 1, !tbaa !13
  %6 = load ptr, ptr %3, align 8
  %7 = getelementptr inbounds nuw %"class.Imf_3_4::TimeCode", ptr %6, i32 0, i32 0
  %8 = load i8, ptr %4, align 1, !tbaa !13, !range !15, !noundef !16
  %9 = trunc i8 %8 to i1
  %10 = xor i1 %9, true
  %11 = xor i1 %10, true
  %12 = zext i1 %11 to i32
  call void @_ZN7Imf_3_412_GLOBAL__N_111setBitFieldERjiij(ptr noundef nonnull align 4 dereferenceable(4) %7, i32 noundef 23, i32 noundef 23, i32 noundef %12)
  ret void
}

; Function Attrs: mustprogress uwtable
define void @_ZN7Imf_3_48TimeCode15setTimeAndFlagsEjNS0_7PackingE(ptr noundef nonnull align 4 dereferenceable(8) %0, i32 noundef %1, i32 noundef %2) #1 align 2 {
  %4 = alloca ptr, align 8
  %5 = alloca i32, align 4
  %6 = alloca i32, align 4
  store ptr %0, ptr %4, align 8, !tbaa !3
  store i32 %1, ptr %5, align 4, !tbaa !12
  store i32 %2, ptr %6, align 4, !tbaa !17
  %7 = load ptr, ptr %4, align 8
  %8 = load i32, ptr %6, align 4, !tbaa !17
  %9 = icmp eq i32 %8, 1
  br i1 %9, label %10, label %34

10:                                               ; preds = %3
  %11 = load i32, ptr %5, align 4, !tbaa !12
  %12 = and i32 %11, 1065320383
  %13 = getelementptr inbounds nuw %"class.Imf_3_4::TimeCode", ptr %7, i32 0, i32 0
  store i32 %12, ptr %13, align 4, !tbaa !8
  %14 = load i32, ptr %5, align 4, !tbaa !12
  %15 = and i32 %14, 32768
  %16 = icmp ne i32 %15, 0
  br i1 %16, label %17, label %18

17:                                               ; preds = %10
  call void @_ZN7Imf_3_48TimeCode7setBgf0Eb(ptr noundef nonnull align 4 dereferenceable(8) %7, i1 noundef zeroext true)
  br label %18

18:                                               ; preds = %17, %10
  %19 = load i32, ptr %5, align 4, !tbaa !12
  %20 = and i32 %19, 8388608
  %21 = icmp ne i32 %20, 0
  br i1 %21, label %22, label %23

22:                                               ; preds = %18
  call void @_ZN7Imf_3_48TimeCode7setBgf2Eb(ptr noundef nonnull align 4 dereferenceable(8) %7, i1 noundef zeroext true)
  br label %23

23:                                               ; preds = %22, %18
  %24 = load i32, ptr %5, align 4, !tbaa !12
  %25 = and i32 %24, 1073741824
  %26 = icmp ne i32 %25, 0
  br i1 %26, label %27, label %28

27:                                               ; preds = %23
  call void @_ZN7Imf_3_48TimeCode7setBgf1Eb(ptr noundef nonnull align 4 dereferenceable(8) %7, i1 noundef zeroext true)
  br label %28

28:                                               ; preds = %27, %23
  %29 = load i32, ptr %5, align 4, !tbaa !12
  %30 = and i32 %29, -2147483648
  %31 = icmp ne i32 %30, 0
  br i1 %31, label %32, label %33

32:                                               ; preds = %28
  call void @_ZN7Imf_3_48TimeCode13setFieldPhaseEb(ptr noundef nonnull align 4 dereferenceable(8) %7, i1 noundef zeroext true)
  br label %33

33:                                               ; preds = %32, %28
  br label %45

34:                                               ; preds = %3
  %35 = load i32, ptr %6, align 4, !tbaa !17
  %36 = icmp eq i32 %35, 2
  br i1 %36, label %37, label %41

37:                                               ; preds = %34
  %38 = load i32, ptr %5, align 4, !tbaa !12
  %39 = and i32 %38, -193
  %40 = getelementptr inbounds nuw %"class.Imf_3_4::TimeCode", ptr %7, i32 0, i32 0
  store i32 %39, ptr %40, align 4, !tbaa !8
  br label %44

41:                                               ; preds = %34
  %42 = load i32, ptr %5, align 4, !tbaa !12
  %43 = getelementptr inbounds nuw %"class.Imf_3_4::TimeCode", ptr %7, i32 0, i32 0
  store i32 %42, ptr %43, align 4, !tbaa !8
  br label %44

44:                                               ; preds = %41, %37
  br label %45

45:                                               ; preds = %44, %33
  ret void
}