; Function Attrs: mustprogress nofree norecurse nosync nounwind willreturn memory(argmem: write) uwtable
define void @_ZN7Imf_3_48TimeCode15setTimeAndFlagsEjNS0_7PackingE(ptr noundef nonnull writeonly align 4 captures(none) dereferenceable(8) initializes((0, 4)) %0, i32 noundef %1, i32 noundef %2) local_unnamed_addr #0 align 2 {
  switch i32 %2, label %.sink.split [
    i32 1, label %4
    i32 2, label %14
  ]

4:                                                ; preds = %3
  %5 = and i32 %1, 1065320383
  %6 = shl i32 %1, 8
  %7 = and i32 %6, 8388608
  %spec.select = or disjoint i32 %5, %7
  %8 = shl i32 %1, 8
  %9 = and i32 %8, -2147483648
  %spec.select12 = or disjoint i32 %spec.select, %9
  %10 = and i32 %1, 1073741824
  %11 = or disjoint i32 %spec.select12, %10
  store i32 %11, ptr %0, align 4, !tbaa !9
  %.not11 = icmp sgt i32 %1, -1
  br i1 %.not11, label %16, label %12

12:                                               ; preds = %4
  %13 = or disjoint i32 %11, 32768
  br label %.sink.split

14:                                               ; preds = %3
  %15 = and i32 %1, -193
  br label %.sink.split

.sink.split:                                      ; preds = %3, %12, %14
  %.sink = phi i32 [ %15, %14 ], [ %13, %12 ], [ %1, %3 ]
  store i32 %.sink, ptr %0, align 4, !tbaa !9
  br label %16

16:                                               ; preds = %.sink.split, %4
  ret void
}